Certificate:
    Data:
        Version: 3 (0x2)
        Serial Number: 6404533529425984149 (0x58e1794ff583ba95)
        Signature Algorithm: sha256WithRSAEncryption
        Issuer: C = US, ST = North Carolina, O = "Red Hat, Inc.", OU = Red Hat Network, CN = Red Hat Candlepin Authority, emailAddress = ca-support@redhat.com
        Validity
            Not Before: Jan 31 10:11:57 2024 GMT
            Not After : Jan 31 11:11:57 2025 GMT
        Subject: O = 16764524, CN = 3cc18ba1-1bdf-4873-b95d-7375789eefbd
        Subject Public Key Info:
            Public Key Algorithm: rsaEncryption
                Public-Key: (4096 bit)
                Modulus:
                    00:c0:ae:a6:17:0b:5a:bb:95:cd:03:d4:7b:8b:b7:
                    20:87:8e:38:4c:02:0c:4c:9a:32:4e:5a:d0:25:62:
                    8a:aa:35:78:51:f7:ad:59:cd:91:4c:10:d0:5a:56:
                    c2:af:c9:6c:01:03:b6:45:80:71:8d:b9:01:27:54:
                    54:ea:cc:40:18:89:2f:25:46:d5:38:40:45:2d:88:
                    f3:71:06:e9:54:d9:ce:74:78:f6:7f:c6:67:d4:ee:
                    0f:70:d7:b0:06:11:ee:57:93:31:b3:d7:c4:de:2c:
                    be:23:dc:7b:f6:65:fa:9f:cf:91:df:c6:19:b2:24:
                    d3:b1:3a:96:e7:51:5f:78:8c:29:7b:04:b6:2b:cf:
                    35:20:dd:6d:63:45:db:3e:9e:9d:40:20:0b:14:88:
                    91:a6:55:63:72:c3:9d:a0:65:fa:60:ab:7f:50:b7:
                    dc:67:3c:87:e0:b8:47:2e:56:4b:93:cf:3e:04:99:
                    cd:bc:2f:11:5e:c8:8d:6a:ce:9d:b6:35:b0:85:b1:
                    c2:bf:23:e8:f9:2d:d2:c1:73:8b:af:03:6b:68:06:
                    cb:a4:9a:60:4c:16:52:f8:57:52:e7:32:48:55:f7:
                    34:2d:5b:f6:a5:62:9f:d8:ae:36:86:de:17:91:c7:
                    c3:f2:9f:27:2e:63:f8:42:35:66:7c:28:07:3b:af:
                    bb:80:fe:e3:7d:4a:05:51:ea:13:a1:ae:cc:ed:97:
                    35:5b:6c:14:27:b6:e8:d9:65:1c:d6:5f:97:e5:1f:
                    e7:d7:f2:a3:07:9b:78:41:cc:91:0a:86:bd:e9:7b:
                    e3:2f:18:0e:4f:3f:5c:cb:d1:91:ef:30:3a:9f:84:
                    5a:d7:94:c9:f4:04:8b:23:c6:44:1b:c0:41:cf:4c:
                    75:85:fd:b0:b2:5f:2c:e5:2f:fc:0d:ec:2e:be:54:
                    a4:9c:16:dd:48:39:e2:38:6d:1e:db:20:05:e5:a1:
                    72:23:64:50:c6:2c:3d:a7:0a:da:d2:3e:ec:5d:82:
                    3d:fa:e2:d5:e1:a5:fb:53:f3:5f:58:c8:64:62:ec:
                    90:6e:e1:0e:c8:ee:33:af:40:f9:fb:bb:58:42:7d:
                    fe:6b:b8:45:3e:3b:a4:aa:42:19:5a:e1:9e:a1:44:
                    14:97:7e:89:6a:58:bf:05:a5:7f:fd:48:14:9c:79:
                    10:dc:e4:62:3f:2a:bf:75:9d:9e:17:90:65:75:76:
                    f8:2f:53:75:eb:2e:f2:21:68:8a:81:a8:9f:0c:a2:
                    f6:63:e5:f7:5c:86:3b:3a:2f:c9:52:f4:5c:e4:58:
                    1f:56:dc:4f:57:04:65:c5:5b:dd:fe:3a:59:d1:70:
                    14:70:7b:5d:27:05:d8:49:a8:3f:18:7e:d5:a5:5a:
                    d1:73:4b
                Exponent: 65537 (0x10001)
        X509v3 extensions:
            X509v3 Key Usage: critical
                Digital Signature, Key Encipherment, Data Encipherment
            X509v3 Extended Key Usage: 
                TLS Web Client Authentication
            X509v3 Basic Constraints: 
                CA:FALSE
            Netscape Cert Type: 
                SSL Client, S/MIME
            X509v3 Subject Key Identifier: 
                23:C3:DA:21:11:04:FF:3A:6C:14:2F:38:C6:6F:D3:A0:46:52:86:E7
            X509v3 Authority Key Identifier: 
                77:2E:A5:CD:37:0D:A8:E1:D3:EA:61:C5:56:67:43:E8:91:C7:6D:1C
            X509v3 Subject Alternative Name: 
                DirName:/O=16764524/CN=3cc18ba1-1bdf-4873-b95d-7375789eefbd, DirName:/CN=ipaclient1.hmsidm.test
    Signature Algorithm: sha256WithRSAEncryption
    Signature Value:
        22:31:56:72:df:ae:23:52:74:8f:a3:6b:77:80:05:77:3b:53:
        39:1d:02:a0:c4:f7:1d:cc:28:2f:0a:60:0a:25:77:0f:de:05:
        0f:05:a3:6d:e1:2f:d9:0b:a9:33:cd:3f:07:d7:ec:6b:6b:10:
        9d:b6:4b:a2:5a:50:65:77:9f:cc:f5:6a:6d:b9:3b:e7:9c:48:
        08:24:66:3a:c1:77:7f:82:a1:69:fa:f2:50:ad:e1:2a:b8:b7:
        5c:f3:cd:2a:fa:65:c3:be:e9:92:4a:bf:30:f9:4e:25:79:e3:
        0d:5e:3b:a8:d1:93:6b:af:3d:36:41:dc:a9:58:94:23:40:02:
        5a:74:df:3b:e9:82:33:17:43:e1:42:84:69:36:48:a4:33:3b:
        5f:51:4a:c3:75:f5:42:b0:5d:f9:62:23:7e:a5:9b:27:e4:64:
        19:b7:09:8e:e6:46:28:66:59:3d:02:b9:da:47:e6:c7:75:d1:
        c0:39:72:7b:31:a3:c4:e9:ff:96:a1:77:08:d5:8a:5a:1c:80:
        72:64:0c:1c:85:58:2c:0d:7e:cb:02:87:ac:1c:c4:c7:ce:78:
        7c:de:71:bb:58:3d:59:97:10:13:d5:02:aa:ba:70:cd:1b:2d:
        4d:9b:56:90:39:a3:49:8b:18:66:de:33:3f:e9:43:18:b5:a4:
        8d:48:33:ca:b2:20:80:0e:a7:b4:25:88:25:f0:e7:85:3d:48:
        68:e0:25:6e:75:e9:ee:a0:ac:47:94:d1:46:92:0e:a0:96:77:
        7d:bb:45:bc:87:a2:3c:18:20:0d:c1:0f:92:84:1c:44:14:60:
        32:fe:3e:07:c2:32:7c:ea:9e:c5:e7:39:72:d2:cd:88:ac:83:
        46:f6:4c:ba:fd:7a:e4:12:6a:f6:b1:c7:1e:5e:e2:78:6d:42:
        96:3b:c9:49:a5:46:e0:2d:58:36:57:8d:6f:87:0d:12:19:26:
        79:d5:87:cb:49:ad:f9:60:d5:53:15:9b:ca:c6:d4:b0:e3:2b:
        50:f4:e9:8b:af:19:2c:26:c8:2d:5e:5a:0a:77:89:61:84:b4:
        24:49:38:34:af:5d:3d:68:a2:b8:20:ab:d3:e4:7d:51:d6:36:
        7b:18:9d:7e:10:bc:7c:46:79:d5:1b:b3:47:a4:47:e2:e9:13:
        1d:d1:cf:0f:29:58:16:67:60:12:d3:28:e6:7c:db:ec:4c:40:
        59:01:88:74:a1:47:c0:d0:c1:b9:5e:cd:2f:47:e6:a9:3b:4d:
        03:47:8e:35:c9:c5:6c:b3:ad:ec:e6:02:bb:a7:f9:b3:e7:2a:
        ce:f1:f4:dc:50:31:91:83:28:1a:93:85:11:34:d2:c9:36:88:
        fc:cf:92:8d:b5:26:f9:a8
-----BEGIN CERTIFICATE-----
MIIGZjCCBE6gAwIBAgIIWOF5T/WDupUwDQYJKoZIhvcNAQELBQAwgaQxCzAJBgNV
BAYTAlVTMRcwFQYDVQQIDA5Ob3J0aCBDYXJvbGluYTEWMBQGA1UECgwNUmVkIEhh
dCwgSW5jLjEYMBYGA1UECwwPUmVkIEhhdCBOZXR3b3JrMSQwIgYDVQQDDBtSZWQg
SGF0IENhbmRsZXBpbiBBdXRob3JpdHkxJDAiBgkqhkiG9w0BCQEWFWNhLXN1cHBv
cnRAcmVkaGF0LmNvbTAeFw0yNDAxMzExMDExNTdaFw0yNTAxMzExMTExNTdaMEIx
ETAPBgNVBAoMCDE2NzY0NTI0MS0wKwYDVQQDDCQzY2MxOGJhMS0xYmRmLTQ4NzMt
Yjk1ZC03Mzc1Nzg5ZWVmYmQwggIiMA0GCSqGSIb3DQEBAQUAA4ICDwAwggIKAoIC
AQDArqYXC1q7lc0D1HuLtyCHjjhMAgxMmjJOWtAlYoqqNXhR961ZzZFMENBaVsKv
yWwBA7ZFgHGNuQEnVFTqzEAYiS8lRtU4QEUtiPNxBulU2c50ePZ/xmfU7g9w17AG
Ee5XkzGz18TeLL4j3Hv2Zfqfz5HfxhmyJNOxOpbnUV94jCl7BLYrzzUg3W1jRds+
np1AIAsUiJGmVWNyw52gZfpgq39Qt9xnPIfguEcuVkuTzz4Emc28LxFeyI1qzp22
NbCFscK/I+j5LdLBc4uvA2toBsukmmBMFlL4V1LnMkhV9zQtW/alYp/YrjaG3heR
x8PynycuY/hCNWZ8KAc7r7uA/uN9SgVR6hOhrsztlzVbbBQntujZZRzWX5flH+fX
8qMHm3hBzJEKhr3pe+MvGA5PP1zL0ZHvMDqfhFrXlMn0BIsjxkQbwEHPTHWF/bCy
XyzlL/wN7C6+VKScFt1IOeI4bR7bIAXloXIjZFDGLD2nCtrSPuxdgj364tXhpftT
819YyGRi7JBu4Q7I7jOvQPn7u1hCff5ruEU+O6SqQhla4Z6hRBSXfolqWL8FpX/9
SBSceRDc5GI/Kr91nZ4XkGV1dvgvU3XrLvIhaIqBqJ8MovZj5fdchjs6L8lS9Fzk
WB9W3E9XBGXFW93+OlnRcBRwe10nBdhJqD8YftWlWtFzSwIDAQABo4H8MIH5MA4G
A1UdDwEB/wQEAwIEsDATBgNVHSUEDDAKBggrBgEFBQcDAjAJBgNVHRMEAjAAMBEG
CWCGSAGG+EIBAQQEAwIFoDAdBgNVHQ4EFgQUI8PaIREE/zpsFC84xm/ToEZShucw
HwYDVR0jBBgwFoAUdy6lzTcNqOHT6mHFVmdD6JHHbRwwdAYDVR0RBG0wa6REMEIx
ETAPBgNVBAoMCDE2NzY0NTI0MS0wKwYDVQQDDCQzY2MxOGJhMS0xYmRmLTQ4NzMt
Yjk1ZC03Mzc1Nzg5ZWVmYmSkIzAhMR8wHQYDVQQDDBZpcGFjbGllbnQxLmhtc2lk
bS50ZXN0MA0GCSqGSIb3DQEBCwUAA4ICAQAiMVZy364jUnSPo2t3gAV3O1M5HQKg
xPcdzCgvCmAKJXcP3gUPBaNt4S/ZC6kzzT8H1+xraxCdtkuiWlBld5/M9WptuTvn
nEgIJGY6wXd/gqFp+vJQreEquLdc880q+mXDvumSSr8w+U4leeMNXjuo0ZNrrz02
QdypWJQjQAJadN876YIzF0PhQoRpNkikMztfUUrDdfVCsF35YiN+pZsn5GQZtwmO
5kYoZlk9ArnaR+bHddHAOXJ7MaPE6f+WoXcI1YpaHIByZAwchVgsDX7LAoesHMTH
znh83nG7WD1ZlxAT1QKqunDNGy1Nm1aQOaNJixhm3jM/6UMYtaSNSDPKsiCADqe0
JYgl8OeFPUho4CVudenuoKxHlNFGkg6glnd9u0W8h6I8GCANwQ+ShBxEFGAy/j4H
wjJ86p7F5zly0s2IrING9ky6/XrkEmr2scceXuJ4bUKWO8lJpUbgLVg2V41vhw0S
GSZ51YfLSa35YNVTFZvKxtSw4ytQ9OmLrxksJsgtXloKd4lhhLQkSTg0r109aKK4
IKvT5H1R1jZ7GJ1+ELx8RnnVG7NHpEfi6RMd0c8PKVgWZ2AS0yjmfNvsTEBZAYh0
oUfA0MG5Xs0vR+apO00DR441ycVss63s5gK7p/mz5yrO8fTcUDGRgygak4URNNLJ
Noj8z5KNtSb5qA==
-----END CERTIFICATE-----
